target datalayout = "e-m:e-p270:32:32-p271:32:32-p272:64:64-i64:64-i128:128-f80:128-n8:16:32:64-S128"
target triple = "x86_64-pc-linux-gnu"

%struct.Type_ = type { i32, ptr, ptr, ptr, %union.anon, ptr, ptr, %union.anon.1 }
%union.anon = type { ptr }
%union.anon.1 = type { %struct.TypeFunction }
%struct.TypeFunction = type { ptr, ptr, ptr }
%struct.TypeArray = type { ptr, i32 }
%struct.FunctionPrototype_ = type { i16, i16, ptr, ptr, ptr, ptr, ptr, ptr, ptr, ptr, ptr, ptr, ptr }

; Function Attrs: nounwind uwtable
define dso_local ptr @type_get_inferred_array(ptr noundef %0) #0 {
  %2 = alloca ptr, align 8
  store ptr %0, ptr %2, align 8
  %3 = load ptr, ptr %2, align 8
  %4 = call ptr @type_generate_inferred_array(ptr noundef %3, i1 noundef zeroext false)
  ret ptr %4
}

; Function Attrs: nounwind uwtable
define dso_local ptr @type_get_flexible_array(ptr noundef %0) #0 {
  %2 = alloca ptr, align 8
  store ptr %0, ptr %2, align 8
  %3 = load ptr, ptr %2, align 8
  %4 = call ptr @type_generate_flexible_array(ptr noundef %3, i1 noundef zeroext false)
  ret ptr %4
}

; Function Attrs: nounwind uwtable
define dso_local ptr @type_get_subarray(ptr noundef %0) #0 {
  %2 = alloca ptr, align 8
  store ptr %0, ptr %2, align 8
  %3 = load ptr, ptr %2, align 8
  %4 = call ptr @type_generate_subarray(ptr noundef %3, i1 noundef zeroext false)
  ret ptr %4
}

; Function Attrs: nounwind uwtable
define dso_local ptr @type_get_array(ptr noundef %0, i32 noundef %1) #0 {
  %3 = alloca ptr, align 8
  %4 = alloca i32, align 4
  store ptr %0, ptr %3, align 8
  store i32 %1, ptr %4, align 4
  %5 = load ptr, ptr %3, align 8
  %6 = load i32, ptr %4, align 4
  %7 = call ptr @type_create_array(ptr noundef %5, i32 noundef %6, i1 noundef zeroext false, i1 noundef zeroext false)
  ret ptr %7
}

; Function Attrs: nounwind uwtable
define dso_local ptr @type_get_ptr(ptr noundef %0) #0 {
  %2 = alloca ptr, align 8
  store ptr %0, ptr %2, align 8
  %3 = load ptr, ptr %2, align 8
  %4 = call ptr @type_generate_ptr(ptr noundef %3, i1 noundef zeroext false)
  ret ptr %4
}

; Function Attrs: nounwind uwtable
define dso_local ptr @type_get_optional(ptr noundef %0) #0 {
  %2 = alloca ptr, align 8
  store ptr %0, ptr %2, align 8
  %3 = load ptr, ptr %2, align 8
  %4 = call ptr @type_generate_optional(ptr noundef %3, i1 noundef zeroext false)
  ret ptr %4
}

; Function Attrs: nounwind uwtable
define internal ptr @flatten_raw_function_type(ptr noundef %0) #0 {
  %2 = alloca ptr, align 8
  %3 = alloca ptr, align 8
  %4 = alloca ptr, align 8
  %5 = alloca ptr, align 8
  store ptr %0, ptr %3, align 8
  %6 = load ptr, ptr %3, align 8
  %7 = getelementptr inbounds %struct.Type_, ptr %6, i32 0, i32 0
  %8 = load i32, ptr %7, align 8
  switch i32 %8, label %125 [
    i32 31, label %9
    i32 25, label %14
    i32 40, label %21
    i32 23, label %37
    i32 33, label %53
    i32 34, label %74
    i32 35, label %91
    i32 36, label %108
  ]

9:                                                ; preds = %1
  %10 = load ptr, ptr %3, align 8
  %11 = getelementptr inbounds %struct.Type_, ptr %10, i32 0, i32 1
  %12 = load ptr, ptr %11, align 8
  %13 = call ptr @flatten_raw_function_type(ptr noundef %12)
  store ptr %13, ptr %2, align 8
  br label %127

14:                                               ; preds = %1
  %15 = load ptr, ptr %3, align 8
  %16 = getelementptr inbounds %struct.Type_, ptr %15, i32 0, i32 7
  %17 = getelementptr inbounds %struct.TypeFunction, ptr %16, i32 0, i32 2
  %18 = load ptr, ptr %17, align 8
  %19 = getelementptr inbounds %struct.FunctionPrototype_, ptr %18, i32 0, i32 12
  %20 = load ptr, ptr %19, align 8
  store ptr %20, ptr %2, align 8
  br label %127

21:                                               ; preds = %1
  %22 = load ptr, ptr %3, align 8
  %23 = getelementptr inbounds %struct.Type_, ptr %22, i32 0, i32 7
  %24 = load ptr, ptr %23, align 8
  store ptr %24, ptr %5, align 8
  %25 = load ptr, ptr %5, align 8
  %26 = call ptr @flatten_raw_function_type(ptr noundef %25)
  store ptr %26, ptr %4, align 8
  %27 = load ptr, ptr %4, align 8
  %28 = load ptr, ptr %5, align 8
  %29 = icmp eq ptr %27, %28
  br i1 %29, label %30, label %32

30:                                               ; preds = %21
  %31 = load ptr, ptr %3, align 8
  br label %35

32:                                               ; preds = %21
  %33 = load ptr, ptr %4, align 8
  %34 = call ptr @type_get_optional(ptr noundef %33)
  br label %35

35:                                               ; preds = %32, %30
  %36 = phi ptr [ %31, %30 ], [ %34, %32 ]
  store ptr %36, ptr %2, align 8
  br label %127

37:                                               ; preds = %1
  %38 = load ptr, ptr %3, align 8
  %39 = getelementptr inbounds %struct.Type_, ptr %38, i32 0, i32 7
  %40 = load ptr, ptr %39, align 8
  store ptr %40, ptr %5, align 8
  %41 = load ptr, ptr %5, align 8
  %42 = call ptr @flatten_raw_function_type(ptr noundef %41)
  store ptr %42, ptr %4, align 8
  %43 = load ptr, ptr %4, align 8
  %44 = load ptr, ptr %5, align 8
  %45 = icmp eq ptr %43, %44
  br i1 %45, label %46, label %48

46:                                               ; preds = %37
  %47 = load ptr, ptr %3, align 8
  br label %51

48:                                               ; preds = %37
  %49 = load ptr, ptr %4, align 8
  %50 = call ptr @type_get_ptr(ptr noundef %49)
  br label %51

51:                                               ; preds = %48, %46
  %52 = phi ptr [ %47, %46 ], [ %50, %48 ]
  store ptr %52, ptr %2, align 8
  br label %127

53:                                               ; preds = %1
  %54 = load ptr, ptr %3, align 8
  %55 = getelementptr inbounds %struct.Type_, ptr %54, i32 0, i32 7
  %56 = getelementptr inbounds %struct.TypeArray, ptr %55, i32 0, i32 0
  %57 = load ptr, ptr %56, align 8
  store ptr %57, ptr %5, align 8
  %58 = load ptr, ptr %5, align 8
  %59 = call ptr @flatten_raw_function_type(ptr noundef %58)
  store ptr %59, ptr %4, align 8
  %60 = load ptr, ptr %4, align 8
  %61 = load ptr, ptr %5, align 8
  %62 = icmp eq ptr %60, %61
  br i1 %62, label %63, label %65

63:                                               ; preds = %53
  %64 = load ptr, ptr %3, align 8
  br label %72

65:                                               ; preds = %53
  %66 = load ptr, ptr %4, align 8
  %67 = load ptr, ptr %3, align 8
  %68 = getelementptr inbounds %struct.Type_, ptr %67, i32 0, i32 7
  %69 = getelementptr inbounds %struct.TypeArray, ptr %68, i32 0, i32 1
  %70 = load i32, ptr %69, align 8
  %71 = call ptr @type_get_array(ptr noundef %66, i32 noundef %70)
  br label %72

72:                                               ; preds = %65, %63
  %73 = phi ptr [ %64, %63 ], [ %71, %65 ]
  store ptr %73, ptr %2, align 8
  br label %127

74:                                               ; preds = %1
  %75 = load ptr, ptr %3, align 8
  %76 = getelementptr inbounds %struct.Type_, ptr %75, i32 0, i32 7
  %77 = getelementptr inbounds %struct.TypeArray, ptr %76, i32 0, i32 0
  %78 = load ptr, ptr %77, align 8
  store ptr %78, ptr %5, align 8
  %79 = load ptr, ptr %5, align 8
  %80 = call ptr @flatten_raw_function_type(ptr noundef %79)
  store ptr %80, ptr %4, align 8
  %81 = load ptr, ptr %4, align 8
  %82 = load ptr, ptr %5, align 8
  %83 = icmp eq ptr %81, %82
  br i1 %83, label %84, label %86

84:                                               ; preds = %74
  %85 = load ptr, ptr %3, align 8
  br label %89

86:                                               ; preds = %74
  %87 = load ptr, ptr %4, align 8
  %88 = call ptr @type_get_subarray(ptr noundef %87)
  br label %89

89:                                               ; preds = %86, %84
  %90 = phi ptr [ %85, %84 ], [ %88, %86 ]
  store ptr %90, ptr %2, align 8
  br label %127

91:                                               ; preds = %1
  %92 = load ptr, ptr %3, align 8
  %93 = getelementptr inbounds %struct.Type_, ptr %92, i32 0, i32 7
  %94 = getelementptr inbounds %struct.TypeArray, ptr %93, i32 0, i32 0
  %95 = load ptr, ptr %94, align 8
  store ptr %95, ptr %5, align 8
  %96 = load ptr, ptr %5, align 8
  %97 = call ptr @flatten_raw_function_type(ptr noundef %96)
  store ptr %97, ptr %4, align 8
  %98 = load ptr, ptr %4, align 8
  %99 = load ptr, ptr %5, align 8
  %100 = icmp eq ptr %98, %99
  br i1 %100, label %101, label %103

101:                                              ; preds = %91
  %102 = load ptr, ptr %3, align 8
  br label %106

103:                                              ; preds = %91
  %104 = load ptr, ptr %4, align 8
  %105 = call ptr @type_get_flexible_array(ptr noundef %104)
  br label %106

106:                                              ; preds = %103, %101
  %107 = phi ptr [ %102, %101 ], [ %105, %103 ]
  store ptr %107, ptr %2, align 8
  br label %127

108:                                              ; preds = %1
  %109 = load ptr, ptr %3, align 8
  %110 = getelementptr inbounds %struct.Type_, ptr %109, i32 0, i32 7
  %111 = getelementptr inbounds %struct.TypeArray, ptr %110, i32 0, i32 0
  %112 = load ptr, ptr %111, align 8
  store ptr %112, ptr %5, align 8
  %113 = load ptr, ptr %5, align 8
  %114 = call ptr @flatten_raw_function_type(ptr noundef %113)
  store ptr %114, ptr %4, align 8
  %115 = load ptr, ptr %4, align 8
  %116 = load ptr, ptr %5, align 8
  %117 = icmp eq ptr %115, %116
  br i1 %117, label %118, label %120

118:                                              ; preds = %108
  %119 = load ptr, ptr %3, align 8
  br label %123

120:                                              ; preds = %108
  %121 = load ptr, ptr %4, align 8
  %122 = call ptr @type_get_inferred_array(ptr noundef %121)
  br label %123

123:                                              ; preds = %120, %118
  %124 = phi ptr [ %119, %118 ], [ %122, %120 ]
  store ptr %124, ptr %2, align 8
  br label %127

125:                                              ; preds = %1
  %126 = load ptr, ptr %3, align 8
  store ptr %126, ptr %2, align 8
  br label %127

127:                                              ; preds = %125, %123, %106, %89, %72, %51, %35, %14, %9
  %128 = load ptr, ptr %2, align 8
  ret ptr %128
}