; Function Attrs: nounwind uwtable
define internal fastcc ptr @flatten_raw_function_type(ptr noundef readonly %0) unnamed_addr #0 {
  br label %tailrecurse

tailrecurse:                                      ; preds = %3, %1
  %.tr = phi ptr [ %0, %1 ], [ %5, %3 ]
  %2 = load i32, ptr %.tr, align 8
  switch i32 %2, label %.loopexit [
    i32 31, label %3
    i32 25, label %6
    i32 40, label %11
    i32 23, label %18
    i32 33, label %25
    i32 34, label %34
    i32 35, label %41
    i32 36, label %48
  ]

3:                                                ; preds = %tailrecurse
  %4 = getelementptr inbounds i8, ptr %.tr, i64 8
  %5 = load ptr, ptr %4, align 8
  br label %tailrecurse

6:                                                ; preds = %tailrecurse
  %7 = getelementptr inbounds i8, ptr %.tr, i64 72
  %8 = load ptr, ptr %7, align 8
  %9 = getelementptr inbounds i8, ptr %8, i64 88
  %10 = load ptr, ptr %9, align 8
  br label %.loopexit

11:                                               ; preds = %tailrecurse
  %12 = getelementptr inbounds i8, ptr %.tr, i64 56
  %13 = load ptr, ptr %12, align 8
  %14 = tail call fastcc ptr @flatten_raw_function_type(ptr noundef %13)
  %15 = icmp eq ptr %14, %13
  br i1 %15, label %.loopexit, label %16

16:                                               ; preds = %11
  %17 = tail call fastcc ptr @type_generate_optional(ptr noundef %14, i1 noundef zeroext false)
  br label %.loopexit

18:                                               ; preds = %tailrecurse
  %19 = getelementptr inbounds i8, ptr %.tr, i64 56
  %20 = load ptr, ptr %19, align 8
  %21 = tail call fastcc ptr @flatten_raw_function_type(ptr noundef %20)
  %22 = icmp eq ptr %21, %20
  br i1 %22, label %.loopexit, label %23

23:                                               ; preds = %18
  %24 = tail call fastcc ptr @type_generate_ptr(ptr noundef %21, i1 noundef zeroext false)
  br label %.loopexit

25:                                               ; preds = %tailrecurse
  %26 = getelementptr inbounds i8, ptr %.tr, i64 56
  %27 = load ptr, ptr %26, align 8
  %28 = tail call fastcc ptr @flatten_raw_function_type(ptr noundef %27)
  %29 = icmp eq ptr %28, %27
  br i1 %29, label %.loopexit, label %30

30:                                               ; preds = %25
  %31 = getelementptr inbounds i8, ptr %.tr, i64 64
  %32 = load i32, ptr %31, align 8
  %33 = tail call fastcc noundef ptr @type_create_array(ptr noundef %28, i32 noundef %32, i1 noundef zeroext false, i1 noundef zeroext false)
  br label %.loopexit

34:                                               ; preds = %tailrecurse
  %35 = getelementptr inbounds i8, ptr %.tr, i64 56
  %36 = load ptr, ptr %35, align 8
  %37 = tail call fastcc ptr @flatten_raw_function_type(ptr noundef %36)
  %38 = icmp eq ptr %37, %36
  br i1 %38, label %.loopexit, label %39

39:                                               ; preds = %34
  %40 = tail call fastcc ptr @type_generate_subarray(ptr noundef %37, i1 noundef zeroext false)
  br label %.loopexit

41:                                               ; preds = %tailrecurse
  %42 = getelementptr inbounds i8, ptr %.tr, i64 56
  %43 = load ptr, ptr %42, align 8
  %44 = tail call fastcc ptr @flatten_raw_function_type(ptr noundef %43)
  %45 = icmp eq ptr %44, %43
  br i1 %45, label %.loopexit, label %46

46:                                               ; preds = %41
  %47 = tail call fastcc ptr @type_generate_flexible_array(ptr noundef %44, i1 noundef zeroext false)
  br label %.loopexit

48:                                               ; preds = %tailrecurse
  %49 = getelementptr inbounds i8, ptr %.tr, i64 56
  %50 = load ptr, ptr %49, align 8
  %51 = tail call fastcc ptr @flatten_raw_function_type(ptr noundef %50)
  %52 = icmp eq ptr %51, %50
  br i1 %52, label %.loopexit, label %53

53:                                               ; preds = %48
  %54 = tail call fastcc ptr @type_generate_inferred_array(ptr noundef %51, i1 noundef zeroext false)
  br label %.loopexit

.loopexit:                                        ; preds = %tailrecurse, %53, %48, %46, %41, %39, %34, %30, %25, %23, %18, %16, %11, %6
  %.0 = phi ptr [ %10, %6 ], [ %17, %16 ], [ %.tr, %11 ], [ %24, %23 ], [ %.tr, %18 ], [ %33, %30 ], [ %.tr, %25 ], [ %40, %39 ], [ %.tr, %34 ], [ %47, %46 ], [ %.tr, %41 ], [ %54, %53 ], [ %.tr, %48 ], [ %.tr, %tailrecurse ]
  ret ptr %.0
}